target datalayout = "e-m:e-p270:32:32-p271:32:32-p272:64:64-i64:64-i128:128-f80:128-n8:16:32:64-S128"
target triple = "x86_64-pc-linux-gnu"

%struct.sigalg_lookup_st = type { ptr, i16, i32, i32, i32, i32, i32, i32, i32 }

@.str.2 = private unnamed_addr constant [24 x i8] c"../openssl/ssl/t1_lib.c\00", align 1
@.str.9 = private unnamed_addr constant [2 x i8] c":\00", align 1
@__func__.SSL_get1_builtin_sigalgs = private unnamed_addr constant [25 x i8] c"SSL_get1_builtin_sigalgs\00", align 1

; Function Attrs: nounwind uwtable
define ptr @SSL_get1_builtin_sigalgs(ptr noundef %0) #1 {
  %2 = alloca ptr, align 8
  %3 = alloca ptr, align 8
  %4 = alloca i64, align 8
  %5 = alloca i64, align 8
  %6 = alloca ptr, align 8
  %7 = alloca ptr, align 8
  %8 = alloca ptr, align 8
  %9 = alloca i32, align 4
  %10 = alloca ptr, align 8
  %11 = alloca i32, align 4
  %12 = alloca ptr, align 8
  %13 = alloca ptr, align 8
  %14 = alloca ptr, align 8
  store ptr %0, ptr %3, align 8, !tbaa !227
  call void @llvm.lifetime.start.p0(i64 8, ptr %4) #8
  call void @llvm.lifetime.start.p0(i64 8, ptr %5) #8
  store i64 100, ptr %5, align 8, !tbaa !3
  call void @llvm.lifetime.start.p0(i64 8, ptr %6) #8
  call void @llvm.lifetime.start.p0(i64 8, ptr %7) #8
  %15 = call ptr @EVP_PKEY_new()
  store ptr %15, ptr %7, align 8, !tbaa !202
  call void @llvm.lifetime.start.p0(i64 8, ptr %8) #8
  %16 = load i64, ptr %5, align 8, !tbaa !3
  %17 = call noalias ptr @CRYPTO_malloc(i64 noundef %16, ptr noundef @.str.2, i32 noundef 2228)
  store ptr %17, ptr %8, align 8, !tbaa !172
  %18 = load ptr, ptr %8, align 8, !tbaa !172
  %19 = icmp eq ptr %18, null
  br i1 %19, label %20, label %21

20:                                               ; preds = %1
  store ptr null, ptr %2, align 8
  store i32 1, ptr %9, align 4
  br label %130

21:                                               ; preds = %1
  %22 = load ptr, ptr %8, align 8, !tbaa !172
  %23 = getelementptr inbounds i8, ptr %22, i64 0
  store i8 0, ptr %23, align 1, !tbaa !161
  store i64 0, ptr %4, align 8, !tbaa !3
  store ptr @sigalg_lookup_tbl, ptr %6, align 8, !tbaa !201
  br label %24

24:                                               ; preds = %122, %21
  %25 = load i64, ptr %4, align 8, !tbaa !3
  %26 = icmp ult i64 %25, 31
  br i1 %26, label %27, label %127

27:                                               ; preds = %24
  call void @llvm.lifetime.start.p0(i64 8, ptr %10) #8
  call void @llvm.lifetime.start.p0(i64 4, ptr %11) #8
  store i32 1, ptr %11, align 4, !tbaa !128
  %28 = call i32 @ERR_set_mark()
  %29 = load ptr, ptr %6, align 8, !tbaa !201
  %30 = getelementptr inbounds nuw %struct.sigalg_lookup_st, ptr %29, i32 0, i32 2
  %31 = load i32, ptr %30, align 4, !tbaa !204
  %32 = icmp ne i32 %31, 0
  br i1 %32, label %33, label %49

33:                                               ; preds = %27
  call void @llvm.lifetime.start.p0(i64 8, ptr %12) #8
  %34 = load ptr, ptr %3, align 8, !tbaa !227
  %35 = load ptr, ptr %6, align 8, !tbaa !201
  %36 = getelementptr inbounds nuw %struct.sigalg_lookup_st, ptr %35, i32 0, i32 2
  %37 = load i32, ptr %36, align 4, !tbaa !204
  %38 = call ptr @OBJ_nid2ln(i32 noundef %37)
  %39 = call ptr @EVP_MD_fetch(ptr noundef %34, ptr noundef %38, ptr noundef null)
  store ptr %39, ptr %12, align 8, !tbaa !207
  %40 = load ptr, ptr %12, align 8, !tbaa !207
  %41 = icmp eq ptr %40, null
  br i1 %41, label %42, label %44

42:                                               ; preds = %33
  store i32 0, ptr %11, align 4, !tbaa !128
  %43 = call i32 @ERR_pop_to_mark()
  store i32 4, ptr %9, align 4
  br label %46

44:                                               ; preds = %33
  %45 = load ptr, ptr %12, align 8, !tbaa !207
  call void @EVP_MD_free(ptr noundef %45)
  store i32 0, ptr %9, align 4
  br label %46

46:                                               ; preds = %44, %42
  call void @llvm.lifetime.end.p0(i64 8, ptr %12) #8
  %47 = load i32, ptr %9, align 4
  switch i32 %47, label %119 [
    i32 0, label %48
  ]

48:                                               ; preds = %46
  br label %49

49:                                               ; preds = %48, %27
  %50 = load ptr, ptr %7, align 8, !tbaa !202
  %51 = load ptr, ptr %6, align 8, !tbaa !201
  %52 = getelementptr inbounds nuw %struct.sigalg_lookup_st, ptr %51, i32 0, i32 4
  %53 = load i32, ptr %52, align 4, !tbaa !209
  %54 = call i32 @EVP_PKEY_set_type(ptr noundef %50, i32 noundef %53)
  %55 = icmp ne i32 %54, 0
  br i1 %55, label %58, label %56

56:                                               ; preds = %49
  store i32 0, ptr %11, align 4, !tbaa !128
  %57 = call i32 @ERR_pop_to_mark()
  store i32 4, ptr %9, align 4
  br label %119

58:                                               ; preds = %49
  %59 = load ptr, ptr %3, align 8, !tbaa !227
  %60 = load ptr, ptr %7, align 8, !tbaa !202
  %61 = call ptr @EVP_PKEY_CTX_new_from_pkey(ptr noundef %59, ptr noundef %60, ptr noundef null)
  store ptr %61, ptr %10, align 8, !tbaa !211
  %62 = load ptr, ptr %10, align 8, !tbaa !211
  %63 = icmp eq ptr %62, null
  br i1 %63, label %64, label %65

64:                                               ; preds = %58
  store i32 0, ptr %11, align 4, !tbaa !128
  br label %65

65:                                               ; preds = %64, %58
  %66 = call i32 @ERR_pop_to_mark()
  %67 = load ptr, ptr %10, align 8, !tbaa !211
  call void @EVP_PKEY_CTX_free(ptr noundef %67)
  %68 = load i32, ptr %11, align 4, !tbaa !128
  %69 = icmp ne i32 %68, 0
  br i1 %69, label %70, label %118

70:                                               ; preds = %65
  call void @llvm.lifetime.start.p0(i64 8, ptr %13) #8
  %71 = load ptr, ptr %6, align 8, !tbaa !201
  %72 = getelementptr inbounds nuw %struct.sigalg_lookup_st, ptr %71, i32 0, i32 0
  %73 = load ptr, ptr %72, align 8, !tbaa !216
  store ptr %73, ptr %13, align 8, !tbaa !172
  %74 = load ptr, ptr %13, align 8, !tbaa !172
  %75 = icmp ne ptr %74, null
  br i1 %75, label %76, label %113

76:                                               ; preds = %70
  %77 = load ptr, ptr %13, align 8, !tbaa !172
  %78 = call i64 @strlen(ptr noundef %77) #9
  %79 = load ptr, ptr %8, align 8, !tbaa !172
  %80 = call i64 @strlen(ptr noundef %79) #9
  %81 = add i64 %78, %80
  %82 = add i64 %81, 1
  %83 = load i64, ptr %5, align 8, !tbaa !3
  %84 = icmp uge i64 %82, %83
  br i1 %84, label %85, label %100

85:                                               ; preds = %76
  call void @llvm.lifetime.start.p0(i64 8, ptr %14) #8
  %86 = load i64, ptr %5, align 8, !tbaa !3
  %87 = add i64 %86, 100
  store i64 %87, ptr %5, align 8, !tbaa !3
  %88 = load ptr, ptr %8, align 8, !tbaa !172
  %89 = load i64, ptr %5, align 8, !tbaa !3
  %90 = call ptr @CRYPTO_realloc(ptr noundef %88, i64 noundef %89, ptr noundef @.str.2, i32 noundef 2275)
  store ptr %90, ptr %14, align 8, !tbaa !172
  %91 = load ptr, ptr %14, align 8, !tbaa !172
  %92 = icmp eq ptr %91, null
  br i1 %92, label %93, label %95

93:                                               ; preds = %85
  %94 = load ptr, ptr %8, align 8, !tbaa !172
  call void @CRYPTO_free(ptr noundef %94, ptr noundef @.str.2, i32 noundef 2277)
  store ptr null, ptr %2, align 8
  store i32 1, ptr %9, align 4
  br label %97

95:                                               ; preds = %85
  %96 = load ptr, ptr %14, align 8, !tbaa !172
  store ptr %96, ptr %8, align 8, !tbaa !172
  store i32 0, ptr %9, align 4
  br label %97

97:                                               ; preds = %95, %93
  call void @llvm.lifetime.end.p0(i64 8, ptr %14) #8
  %98 = load i32, ptr %9, align 4
  switch i32 %98, label %115 [
    i32 0, label %99
  ]

99:                                               ; preds = %97
  br label %100

100:                                              ; preds = %99, %76
  %101 = load ptr, ptr %8, align 8, !tbaa !172
  %102 = call i64 @strlen(ptr noundef %101) #9
  %103 = icmp ugt i64 %102, 0
  br i1 %103, label %104, label %108

104:                                              ; preds = %100
  %105 = load ptr, ptr %8, align 8, !tbaa !172
  %106 = load i64, ptr %5, align 8, !tbaa !3
  %107 = call i64 @OPENSSL_strlcat(ptr noundef %105, ptr noundef @.str.9, i64 noundef %106)
  br label %108

108:                                              ; preds = %104, %100
  %109 = load ptr, ptr %8, align 8, !tbaa !172
  %110 = load ptr, ptr %13, align 8, !tbaa !172
  %111 = load i64, ptr %5, align 8, !tbaa !3
  %112 = call i64 @OPENSSL_strlcat(ptr noundef %109, ptr noundef %110, i64 noundef %111)
  br label %114

113:                                              ; preds = %70
  call void @ERR_new()
  call void @ERR_set_debug(ptr noundef @.str.2, i32 noundef 2287, ptr noundef @__func__.SSL_get1_builtin_sigalgs)
  call void (i32, i32, ptr, ...) @ERR_set_error(i32 noundef 20, i32 noundef 786691, ptr noundef null)
  br label %114

114:                                              ; preds = %113, %108
  store i32 0, ptr %9, align 4
  br label %115

115:                                              ; preds = %114, %97
  call void @llvm.lifetime.end.p0(i64 8, ptr %13) #8
  %116 = load i32, ptr %9, align 4
  switch i32 %116, label %119 [
    i32 0, label %117
  ]

117:                                              ; preds = %115
  br label %118

118:                                              ; preds = %117, %65
  store i32 0, ptr %9, align 4
  br label %119

119:                                              ; preds = %118, %115, %56, %46
  call void @llvm.lifetime.end.p0(i64 4, ptr %11) #8
  call void @llvm.lifetime.end.p0(i64 8, ptr %10) #8
  %120 = load i32, ptr %9, align 4
  switch i32 %120, label %130 [
    i32 0, label %121
    i32 4, label %122
  ]

121:                                              ; preds = %119
  br label %122

122:                                              ; preds = %121, %119
  %123 = load ptr, ptr %6, align 8, !tbaa !201
  %124 = getelementptr inbounds nuw %struct.sigalg_lookup_st, ptr %123, i32 1
  store ptr %124, ptr %6, align 8, !tbaa !201
  %125 = load i64, ptr %4, align 8, !tbaa !3
  %126 = add i64 %125, 1
  store i64 %126, ptr %4, align 8, !tbaa !3
  br label %24, !llvm.loop !228

127:                                              ; preds = %24
  %128 = load ptr, ptr %7, align 8, !tbaa !202
  call void @EVP_PKEY_free(ptr noundef %128)
  %129 = load ptr, ptr %8, align 8, !tbaa !172
  store ptr %129, ptr %2, align 8
  store i32 1, ptr %9, align 4
  br label %130

130:                                              ; preds = %127, %119, %20
  call void @llvm.lifetime.end.p0(i64 8, ptr %8) #8
  call void @llvm.lifetime.end.p0(i64 8, ptr %7) #8
  call void @llvm.lifetime.end.p0(i64 8, ptr %6) #8
  call void @llvm.lifetime.end.p0(i64 8, ptr %5) #8
  call void @llvm.lifetime.end.p0(i64 8, ptr %4) #8
  %131 = load ptr, ptr %2, align 8
  ret ptr %131
}