; Function Attrs: nounwind uwtable
define ptr @SSL_get1_builtin_sigalgs(ptr noundef %0) local_unnamed_addr #2 {
  %2 = tail call ptr @EVP_PKEY_new() #14
  %3 = tail call noalias ptr @CRYPTO_malloc(i64 noundef 100, ptr noundef nonnull @.str.2, i32 noundef 2228) #14
  %4 = icmp eq ptr %3, null
  br i1 %4, label %45, label %5

5:                                                ; preds = %1
  store i8 0, ptr %3, align 1, !tbaa !141
  br label %6

6:                                                ; preds = %5, %41
  %.043102 = phi i64 [ 0, %5 ], [ %43, %41 ]
  %.044101 = phi i64 [ 100, %5 ], [ %.145.ph, %41 ]
  %.053100 = phi ptr [ @sigalg_lookup_tbl, %5 ], [ %42, %41 ]
  %.05899 = phi ptr [ %3, %5 ], [ %.159.ph, %41 ]
  %7 = tail call i32 @ERR_set_mark() #14
  %8 = getelementptr inbounds nuw i8, ptr %.053100, i64 12
  %9 = load i32, ptr %8, align 4, !tbaa !178
  %.not = icmp eq i32 %9, 0
  br i1 %.not, label %15, label %10

10:                                               ; preds = %6
  %11 = tail call ptr @OBJ_nid2ln(i32 noundef %9) #14
  %12 = tail call ptr @EVP_MD_fetch(ptr noundef %0, ptr noundef %11, ptr noundef null) #14
  %.not70 = icmp eq ptr %12, null
  br i1 %.not70, label %.thread, label %14

.thread:                                          ; preds = %10
  %13 = tail call i32 @ERR_pop_to_mark() #14
  br label %41

14:                                               ; preds = %10
  tail call void @EVP_MD_free(ptr noundef nonnull %12) #14
  br label %15

15:                                               ; preds = %14, %6
  %16 = getelementptr inbounds nuw i8, ptr %.053100, i64 20
  %17 = load i32, ptr %16, align 4, !tbaa !183
  %18 = tail call i32 @EVP_PKEY_set_type(ptr noundef %2, i32 noundef %17) #14
  %.not71 = icmp eq i32 %18, 0
  br i1 %.not71, label %19, label %21

19:                                               ; preds = %15
  %20 = tail call i32 @ERR_pop_to_mark() #14
  br label %41

21:                                               ; preds = %15
  %22 = tail call ptr @EVP_PKEY_CTX_new_from_pkey(ptr noundef %0, ptr noundef %2, ptr noundef null) #14
  %.not97 = icmp eq ptr %22, null
  %23 = tail call i32 @ERR_pop_to_mark() #14
  tail call void @EVP_PKEY_CTX_free(ptr noundef %22) #14
  br i1 %.not97, label %41, label %24

24:                                               ; preds = %21
  %25 = load ptr, ptr %.053100, align 8, !tbaa !186
  %.not73 = icmp eq ptr %25, null
  br i1 %.not73, label %39, label %26

26:                                               ; preds = %24
  %27 = tail call i64 @strlen(ptr noundef nonnull dereferenceable(1) %25) #15
  %28 = tail call i64 @strlen(ptr noundef nonnull dereferenceable(1) %.05899) #15
  %29 = add i64 %27, 1
  %30 = add i64 %29, %28
  %.not74 = icmp ult i64 %30, %.044101
  br i1 %.not74, label %34, label %31

31:                                               ; preds = %26
  %32 = add i64 %.044101, 100
  %33 = tail call ptr @CRYPTO_realloc(ptr noundef nonnull %.05899, i64 noundef %32, ptr noundef nonnull @.str.2, i32 noundef 2275) #14
  %.not75 = icmp eq ptr %33, null
  br i1 %.not75, label %40, label %34

34:                                               ; preds = %31, %26
  %.361 = phi ptr [ %.05899, %26 ], [ %33, %31 ]
  %.347 = phi i64 [ %.044101, %26 ], [ %32, %31 ]
  %char0 = load i8, ptr %.361, align 1
  %.not76 = icmp eq i8 %char0, 0
  br i1 %.not76, label %37, label %35

35:                                               ; preds = %34
  %36 = tail call i64 @OPENSSL_strlcat(ptr noundef nonnull %.361, ptr noundef nonnull @.str.9, i64 noundef %.347) #14
  br label %37

37:                                               ; preds = %35, %34
  %38 = tail call i64 @OPENSSL_strlcat(ptr noundef nonnull %.361, ptr noundef nonnull %25, i64 noundef %.347) #14
  br label %41

39:                                               ; preds = %24
  tail call void @ERR_new() #14
  tail call void @ERR_set_debug(ptr noundef nonnull @.str.2, i32 noundef 2287, ptr noundef nonnull @__func__.SSL_get1_builtin_sigalgs) #14
  tail call void (i32, i32, ptr, ...) @ERR_set_error(i32 noundef 20, i32 noundef 786691, ptr noundef null) #14
  br label %41

40:                                               ; preds = %31
  tail call void @CRYPTO_free(ptr noundef nonnull %.05899, ptr noundef nonnull @.str.2, i32 noundef 2277) #14
  br label %45

41:                                               ; preds = %19, %21, %.thread, %39, %37
  %.159.ph = phi ptr [ %.361, %37 ], [ %.05899, %39 ], [ %.05899, %.thread ], [ %.05899, %21 ], [ %.05899, %19 ]
  %.145.ph = phi i64 [ %.347, %37 ], [ %.044101, %39 ], [ %.044101, %.thread ], [ %.044101, %21 ], [ %.044101, %19 ]
  %42 = getelementptr inbounds nuw i8, ptr %.053100, i64 40
  %43 = add nuw nsw i64 %.043102, 1
  %exitcond.not = icmp eq i64 %43, 31
  br i1 %exitcond.not, label %44, label %6, !llvm.loop !195

44:                                               ; preds = %41
  tail call void @EVP_PKEY_free(ptr noundef %2) #14
  br label %45

45:                                               ; preds = %40, %1, %44
  %.0 = phi ptr [ null, %40 ], [ %.159.ph, %44 ], [ null, %1 ]
  ret ptr %.0
}